target datalayout = "e-m:e-p270:32:32-p271:32:32-p272:64:64-i64:64-i128:128-f80:128-n8:16:32:64-S128"
target triple = "x86_64-pc-linux-gnu"

%struct.Vec_Str_t_ = type { i32, i32, ptr }

; Function Attrs: inlinehint nounwind uwtable
define internal ptr @Vec_StrArray(ptr noundef %0) #2 {
  %2 = alloca ptr, align 8
  store ptr %0, ptr %2, align 8, !tbaa !70
  %3 = load ptr, ptr %2, align 8, !tbaa !70
  %4 = getelementptr inbounds nuw %struct.Vec_Str_t_, ptr %3, i32 0, i32 2
  %5 = load ptr, ptr %4, align 8, !tbaa !94
  ret ptr %5
}

; Function Attrs: inlinehint nounwind uwtable
define internal i32 @Vec_StrSize(ptr noundef %0) #2 {
  %2 = alloca ptr, align 8
  store ptr %0, ptr %2, align 8, !tbaa !70
  %3 = load ptr, ptr %2, align 8, !tbaa !70
  %4 = getelementptr inbounds nuw %struct.Vec_Str_t_, ptr %3, i32 0, i32 1
  %5 = load i32, ptr %4, align 4, !tbaa !93
  ret i32 %5
}

; Function Attrs: inlinehint nounwind uwtable
define internal i32 @Vec_StrCompareVec(ptr noundef %0, ptr noundef %1) #2 {
  %3 = alloca i32, align 4
  %4 = alloca ptr, align 8
  %5 = alloca ptr, align 8
  store ptr %0, ptr %4, align 8, !tbaa !70
  store ptr %1, ptr %5, align 8, !tbaa !70
  %6 = load ptr, ptr %4, align 8, !tbaa !70
  %7 = icmp eq ptr %6, null
  br i1 %7, label %11, label %8

8:                                                ; preds = %2
  %9 = load ptr, ptr %5, align 8, !tbaa !70
  %10 = icmp eq ptr %9, null
  br i1 %10, label %11, label %19

11:                                               ; preds = %8, %2
  %12 = load ptr, ptr %4, align 8, !tbaa !70
  %13 = icmp ne ptr %12, null
  %14 = zext i1 %13 to i32
  %15 = load ptr, ptr %5, align 8, !tbaa !70
  %16 = icmp ne ptr %15, null
  %17 = zext i1 %16 to i32
  %18 = sub nsw i32 %14, %17
  store i32 %18, ptr %3, align 4
  br label %40

19:                                               ; preds = %8
  %20 = load ptr, ptr %4, align 8, !tbaa !70
  %21 = call i32 @Vec_StrSize(ptr noundef %20)
  %22 = load ptr, ptr %5, align 8, !tbaa !70
  %23 = call i32 @Vec_StrSize(ptr noundef %22)
  %24 = icmp ne i32 %21, %23
  br i1 %24, label %25, label %31

25:                                               ; preds = %19
  %26 = load ptr, ptr %4, align 8, !tbaa !70
  %27 = call i32 @Vec_StrSize(ptr noundef %26)
  %28 = load ptr, ptr %5, align 8, !tbaa !70
  %29 = call i32 @Vec_StrSize(ptr noundef %28)
  %30 = sub nsw i32 %27, %29
  store i32 %30, ptr %3, align 4
  br label %40

31:                                               ; preds = %19
  %32 = load ptr, ptr %4, align 8, !tbaa !70
  %33 = call ptr @Vec_StrArray(ptr noundef %32)
  %34 = load ptr, ptr %5, align 8, !tbaa !70
  %35 = call ptr @Vec_StrArray(ptr noundef %34)
  %36 = load ptr, ptr %4, align 8, !tbaa !70
  %37 = call i32 @Vec_StrSize(ptr noundef %36)
  %38 = sext i32 %37 to i64
  %39 = call i32 @memcmp(ptr noundef %33, ptr noundef %35, i64 noundef %38) #11
  store i32 %39, ptr %3, align 4
  br label %40

40:                                               ; preds = %31, %25, %11
  %41 = load i32, ptr %3, align 4
  ret i32 %41
}

; Function Attrs: nounwind uwtable
define i32 @Iso_StoCompareVecStr(ptr noundef %0, ptr noundef %1) #0 {
  %3 = alloca ptr, align 8
  %4 = alloca ptr, align 8
  store ptr %0, ptr %3, align 8, !tbaa !68
  store ptr %1, ptr %4, align 8, !tbaa !68
  %5 = load ptr, ptr %3, align 8, !tbaa !68
  %6 = load ptr, ptr %5, align 8, !tbaa !70
  %7 = load ptr, ptr %4, align 8, !tbaa !68
  %8 = load ptr, ptr %7, align 8, !tbaa !70
  %9 = call i32 @Vec_StrCompareVec(ptr noundef %6, ptr noundef %8)
  ret i32 %9
}